target datalayout = "e-m:e-p270:32:32-p271:32:32-p272:64:64-i64:64-i128:128-f80:128-n8:16:32:64-S128"
target triple = "x86_64-pc-linux-gnu"

%struct.lua_State = type { %struct.GCRef, i8, i8, i8, i8, %struct.MRef, %struct.GCRef, ptr, ptr, %struct.MRef, %struct.MRef, %struct.GCRef, %struct.GCRef, ptr, i32 }
%struct.MRef = type { i64 }
%struct.GCRef = type { i64 }
%union.TValue = type { i64 }
%struct.GCstr = type { %struct.GCRef, i8, i8, i8, i8, i32, i32, i32 }

; Function Attrs: nounwind uwtable
define internal i32 @lj_ffh_assert(ptr noundef %0) #3 {
  %2 = alloca ptr, align 8
  store ptr %0, ptr %2, align 8, !tbaa !4
  %3 = load ptr, ptr %2, align 8, !tbaa !4
  %4 = call ptr @lj_lib_checkany(ptr noundef %3, i32 noundef 1)
  %5 = load ptr, ptr %2, align 8, !tbaa !4
  %6 = getelementptr inbounds nuw %struct.lua_State, ptr %5, i32 0, i32 8
  %7 = load ptr, ptr %6, align 8, !tbaa !9
  %8 = load ptr, ptr %2, align 8, !tbaa !4
  %9 = getelementptr inbounds nuw %struct.lua_State, ptr %8, i32 0, i32 7
  %10 = load ptr, ptr %9, align 8, !tbaa !32
  %11 = getelementptr inbounds %union.TValue, ptr %10, i64 1
  %12 = icmp eq ptr %7, %11
  br i1 %12, label %13, label %15

13:                                               ; preds = %1
  %14 = load ptr, ptr %2, align 8, !tbaa !4
  call void @lj_err_caller(ptr noundef %14, i32 noundef 933) #10
  unreachable

15:                                               ; preds = %1
  %16 = load ptr, ptr %2, align 8, !tbaa !4
  %17 = getelementptr inbounds nuw %struct.lua_State, ptr %16, i32 0, i32 7
  %18 = load ptr, ptr %17, align 8, !tbaa !32
  %19 = getelementptr inbounds %union.TValue, ptr %18, i64 1
  %20 = load i64, ptr %19, align 8, !tbaa !16
  %21 = ashr i64 %20, 47
  %22 = trunc i64 %21 to i32
  %23 = icmp eq i32 %22, -5
  br i1 %23, label %33, label %24

24:                                               ; preds = %15
  %25 = load ptr, ptr %2, align 8, !tbaa !4
  %26 = getelementptr inbounds nuw %struct.lua_State, ptr %25, i32 0, i32 7
  %27 = load ptr, ptr %26, align 8, !tbaa !32
  %28 = getelementptr inbounds %union.TValue, ptr %27, i64 1
  %29 = load i64, ptr %28, align 8, !tbaa !16
  %30 = ashr i64 %29, 47
  %31 = trunc i64 %30 to i32
  %32 = icmp ule i32 %31, -14
  br i1 %32, label %33, label %38

33:                                               ; preds = %24, %15
  %34 = load ptr, ptr %2, align 8, !tbaa !4
  %35 = load ptr, ptr %2, align 8, !tbaa !4
  %36 = call ptr @lj_lib_checkstr(ptr noundef %35, i32 noundef 2)
  %37 = getelementptr inbounds %struct.GCstr, ptr %36, i64 1
  call void @lj_err_callermsg(ptr noundef %34, ptr noundef %37) #10
  unreachable

38:                                               ; preds = %24
  %39 = load ptr, ptr %2, align 8, !tbaa !4
  call void @lj_err_run(ptr noundef %39) #10
  unreachable
}