; Function Attrs: noreturn nounwind uwtable
define internal noundef i32 @lj_ffh_assert(ptr noundef %0) #0 {
  %2 = tail call ptr @lj_lib_checkany(ptr noundef %0, i32 noundef 1) #11
  %3 = getelementptr inbounds nuw i8, ptr %0, i64 40
  %4 = load ptr, ptr %3, align 8, !tbaa !4
  %5 = getelementptr inbounds nuw i8, ptr %0, i64 32
  %6 = load ptr, ptr %5, align 8, !tbaa !19
  %7 = getelementptr inbounds nuw i8, ptr %6, i64 8
  %8 = icmp eq ptr %4, %7
  br i1 %8, label %9, label %10

9:                                                ; preds = %1
  tail call void @lj_err_caller(ptr noundef nonnull %0, i32 noundef 933) #10
  unreachable

10:                                               ; preds = %1
  %11 = load i64, ptr %7, align 8, !tbaa !14
  %12 = ashr i64 %11, 47
  %13 = icmp eq i64 %12, -5
  %14 = icmp ult i64 %12, -13
  %or.cond = or i1 %13, %14
  br i1 %or.cond, label %15, label %18

15:                                               ; preds = %10
  %16 = tail call ptr @lj_lib_checkstr(ptr noundef nonnull %0, i32 noundef 2) #11
  %17 = getelementptr inbounds nuw i8, ptr %16, i64 24
  tail call void @lj_err_callermsg(ptr noundef nonnull %0, ptr noundef nonnull %17) #10
  unreachable

18:                                               ; preds = %10
  tail call void @lj_err_run(ptr noundef nonnull %0) #10
  unreachable
}